target datalayout = "e-m:e-p270:32:32-p271:32:32-p272:64:64-i64:64-i128:128-f80:128-n8:16:32:64-S128"
target triple = "x86_64-pc-linux-gnu"

%"class.std::vector.17" = type { %"struct.std::_Vector_base.18" }
%"struct.std::_Vector_base.18" = type { %"struct.std::_Vector_base<const cvc5::internal::theory::arith::linear::Constraint *, std::allocator<const cvc5::internal::theory::arith::linear::Constraint *>>::_Vector_impl" }
%"struct.std::_Vector_base<const cvc5::internal::theory::arith::linear::Constraint *, std::allocator<const cvc5::internal::theory::arith::linear::Constraint *>>::_Vector_impl" = type { %"struct.std::_Vector_base<const cvc5::internal::theory::arith::linear::Constraint *, std::allocator<const cvc5::internal::theory::arith::linear::Constraint *>>::_Vector_impl_data" }
%"struct.std::_Vector_base<const cvc5::internal::theory::arith::linear::Constraint *, std::allocator<const cvc5::internal::theory::arith::linear::Constraint *>>::_Vector_impl_data" = type { ptr, ptr, ptr }
%"class.cvc5::internal::Rational" = type { %class.__gmp_expr }
%class.__gmp_expr = type { [1 x %struct.__mpq_struct] }
%struct.__mpq_struct = type { %struct.__mpz_struct, %struct.__mpz_struct }
%struct.__mpz_struct = type { i32, i32, ptr }
%"class.std::vector.268" = type { %"struct.std::_Vector_base.269" }
%"struct.std::_Vector_base.269" = type { %"struct.std::_Vector_base<cvc5::internal::Rational, std::allocator<cvc5::internal::Rational>>::_Vector_impl" }
%"struct.std::_Vector_base<cvc5::internal::Rational, std::allocator<cvc5::internal::Rational>>::_Vector_impl" = type { %"struct.std::_Vector_base<cvc5::internal::Rational, std::allocator<cvc5::internal::Rational>>::_Vector_impl_data" }
%"struct.std::_Vector_base<cvc5::internal::Rational, std::allocator<cvc5::internal::Rational>>::_Vector_impl_data" = type { ptr, ptr, ptr }
%"class.cvc5::internal::theory::arith::linear::FarkasConflictBuilder" = type <{ %"class.std::vector.268", %"class.std::vector.17", ptr, i8, i8, [6 x i8] }>
%"class.__gnu_cxx::__normal_iterator.368" = type { ptr }
%"class.__gnu_cxx::__normal_iterator.369" = type { ptr }
%"class.__gnu_cxx::__normal_iterator.370" = type { ptr }

; Function Attrs: mustprogress nounwind uwtable
define linkonce_odr hidden void @_ZN9__gnu_cxx17__normal_iteratorIPN4cvc58internal8RationalESt6vectorIS3_SaIS3_EEEC2ERKS4_(ptr noundef nonnull align 8 dereferenceable(8) %0, ptr noundef nonnull align 8 dereferenceable(8) %1) unnamed_addr #4 comdat align 2 {
  %3 = alloca ptr, align 8
  %4 = alloca ptr, align 8
  store ptr %0, ptr %3, align 8, !tbaa !276
  store ptr %1, ptr %4, align 8, !tbaa !278
  %5 = load ptr, ptr %3, align 8
  %6 = getelementptr inbounds nuw %"class.__gnu_cxx::__normal_iterator.369", ptr %5, i32 0, i32 0
  %7 = load ptr, ptr %4, align 8, !tbaa !278
  %8 = load ptr, ptr %7, align 8, !tbaa !97
  store ptr %8, ptr %6, align 8, !tbaa !280
  ret void
}

; Function Attrs: mustprogress nounwind uwtable
define linkonce_odr hidden void @_ZN9__gnu_cxx17__normal_iteratorIPPKN4cvc58internal6theory5arith6linear10ConstraintESt6vectorIS8_SaIS8_EEEC2ERKS9_(ptr noundef nonnull align 8 dereferenceable(8) %0, ptr noundef nonnull align 8 dereferenceable(8) %1) unnamed_addr #4 comdat align 2 {
  %3 = alloca ptr, align 8
  %4 = alloca ptr, align 8
  store ptr %0, ptr %3, align 8, !tbaa !270
  store ptr %1, ptr %4, align 8, !tbaa !272
  %5 = load ptr, ptr %3, align 8
  %6 = getelementptr inbounds nuw %"class.__gnu_cxx::__normal_iterator.368", ptr %5, i32 0, i32 0
  %7 = load ptr, ptr %4, align 8, !tbaa !272
  %8 = load ptr, ptr %7, align 8, !tbaa !98
  store ptr %8, ptr %6, align 8, !tbaa !274
  ret void
}

; Function Attrs: mustprogress nounwind uwtable
define linkonce_odr hidden noundef nonnull align 8 dereferenceable(8) ptr @_ZNK9__gnu_cxx17__normal_iteratorIPKPKN4cvc58internal6theory5arith6linear10ConstraintESt6vectorIS8_SaIS8_EEE4baseEv(ptr noundef nonnull align 8 dereferenceable(8) %0) #4 comdat align 2 {
  %2 = alloca ptr, align 8
  store ptr %0, ptr %2, align 8, !tbaa !283
  %3 = load ptr, ptr %2, align 8
  %4 = getelementptr inbounds nuw %"class.__gnu_cxx::__normal_iterator.370", ptr %3, i32 0, i32 0
  ret ptr %4
}

; Function Attrs: mustprogress nounwind uwtable
define linkonce_odr hidden void @_ZN9__gnu_cxx17__normal_iteratorIPKPKN4cvc58internal6theory5arith6linear10ConstraintESt6vectorIS8_SaIS8_EEEC2ERKSA_(ptr noundef nonnull align 8 dereferenceable(8) %0, ptr noundef nonnull align 8 dereferenceable(8) %1) unnamed_addr #4 comdat align 2 {
  %3 = alloca ptr, align 8
  %4 = alloca ptr, align 8
  store ptr %0, ptr %3, align 8, !tbaa !283
  store ptr %1, ptr %4, align 8, !tbaa !272
  %5 = load ptr, ptr %3, align 8
  %6 = getelementptr inbounds nuw %"class.__gnu_cxx::__normal_iterator.370", ptr %5, i32 0, i32 0
  %7 = load ptr, ptr %4, align 8, !tbaa !272
  %8 = load ptr, ptr %7, align 8, !tbaa !98
  store ptr %8, ptr %6, align 8, !tbaa !285
  ret void
}

; Function Attrs: mustprogress nounwind uwtable
define linkonce_odr hidden ptr @_ZNK9__gnu_cxx17__normal_iteratorIPN4cvc58internal8RationalESt6vectorIS3_SaIS3_EEEmiEl(ptr noundef nonnull align 8 dereferenceable(8) %0, i64 noundef %1) #4 comdat align 2 {
  %3 = alloca %"class.__gnu_cxx::__normal_iterator.369", align 8
  %4 = alloca ptr, align 8
  %5 = alloca i64, align 8
  %6 = alloca ptr, align 8
  store ptr %0, ptr %4, align 8, !tbaa !276
  store i64 %1, ptr %5, align 8, !tbaa !139
  %7 = load ptr, ptr %4, align 8
  call void @llvm.lifetime.start.p0(i64 8, ptr %6) #3
  %8 = getelementptr inbounds nuw %"class.__gnu_cxx::__normal_iterator.369", ptr %7, i32 0, i32 0
  %9 = load ptr, ptr %8, align 8, !tbaa !280
  %10 = load i64, ptr %5, align 8, !tbaa !139
  %11 = sub i64 0, %10
  %12 = getelementptr inbounds %"class.cvc5::internal::Rational", ptr %9, i64 %11
  store ptr %12, ptr %6, align 8, !tbaa !97
  call void @_ZN9__gnu_cxx17__normal_iteratorIPN4cvc58internal8RationalESt6vectorIS3_SaIS3_EEEC2ERKS4_(ptr noundef nonnull align 8 dereferenceable(8) %3, ptr noundef nonnull align 8 dereferenceable(8) %6) #3
  call void @llvm.lifetime.end.p0(i64 8, ptr %6) #3
  %13 = getelementptr inbounds nuw %"class.__gnu_cxx::__normal_iterator.369", ptr %3, i32 0, i32 0
  %14 = load ptr, ptr %13, align 8
  ret ptr %14
}

; Function Attrs: mustprogress nounwind uwtable
define linkonce_odr hidden ptr @_ZNSt6vectorIN4cvc58internal8RationalESaIS2_EE3endEv(ptr noundef nonnull align 8 dereferenceable(24) %0) #4 comdat align 2 {
  %2 = alloca %"class.__gnu_cxx::__normal_iterator.369", align 8
  %3 = alloca ptr, align 8
  store ptr %0, ptr %3, align 8, !tbaa !89
  %4 = load ptr, ptr %3, align 8
  %5 = getelementptr inbounds nuw %"struct.std::_Vector_base.269", ptr %4, i32 0, i32 0
  %6 = getelementptr inbounds nuw %"struct.std::_Vector_base<cvc5::internal::Rational, std::allocator<cvc5::internal::Rational>>::_Vector_impl_data", ptr %5, i32 0, i32 1
  call void @_ZN9__gnu_cxx17__normal_iteratorIPN4cvc58internal8RationalESt6vectorIS3_SaIS3_EEEC2ERKS4_(ptr noundef nonnull align 8 dereferenceable(8) %2, ptr noundef nonnull align 8 dereferenceable(8) %6) #3
  %7 = getelementptr inbounds nuw %"class.__gnu_cxx::__normal_iterator.369", ptr %2, i32 0, i32 0
  %8 = load ptr, ptr %7, align 8
  ret ptr %8
}

; Function Attrs: mustprogress nounwind uwtable
define linkonce_odr hidden noundef nonnull align 8 dereferenceable(32) ptr @_ZNK9__gnu_cxx17__normal_iteratorIPN4cvc58internal8RationalESt6vectorIS3_SaIS3_EEEdeEv(ptr noundef nonnull align 8 dereferenceable(8) %0) #4 comdat align 2 {
  %2 = alloca ptr, align 8
  store ptr %0, ptr %2, align 8, !tbaa !276
  %3 = load ptr, ptr %2, align 8
  %4 = getelementptr inbounds nuw %"class.__gnu_cxx::__normal_iterator.369", ptr %3, i32 0, i32 0
  %5 = load ptr, ptr %4, align 8, !tbaa !280
  ret ptr %5
}

; Function Attrs: mustprogress nounwind uwtable
define linkonce_odr hidden ptr @_ZNSt6vectorIN4cvc58internal8RationalESaIS2_EE5beginEv(ptr noundef nonnull align 8 dereferenceable(24) %0) #4 comdat align 2 {
  %2 = alloca %"class.__gnu_cxx::__normal_iterator.369", align 8
  %3 = alloca ptr, align 8
  store ptr %0, ptr %3, align 8, !tbaa !89
  %4 = load ptr, ptr %3, align 8
  %5 = getelementptr inbounds nuw %"struct.std::_Vector_base.269", ptr %4, i32 0, i32 0
  %6 = getelementptr inbounds nuw %"struct.std::_Vector_base<cvc5::internal::Rational, std::allocator<cvc5::internal::Rational>>::_Vector_impl_data", ptr %5, i32 0, i32 0
  call void @_ZN9__gnu_cxx17__normal_iteratorIPN4cvc58internal8RationalESt6vectorIS3_SaIS3_EEEC2ERKS4_(ptr noundef nonnull align 8 dereferenceable(8) %2, ptr noundef nonnull align 8 dereferenceable(8) %6) #3
  %7 = getelementptr inbounds nuw %"class.__gnu_cxx::__normal_iterator.369", ptr %2, i32 0, i32 0
  %8 = load ptr, ptr %7, align 8
  ret ptr %8
}

; Function Attrs: mustprogress nounwind uwtable
define linkonce_odr hidden noundef nonnull align 8 dereferenceable(8) ptr @_ZNK9__gnu_cxx17__normal_iteratorIPPKN4cvc58internal6theory5arith6linear10ConstraintESt6vectorIS8_SaIS8_EEEdeEv(ptr noundef nonnull align 8 dereferenceable(8) %0) #4 comdat align 2 {
  %2 = alloca ptr, align 8
  store ptr %0, ptr %2, align 8, !tbaa !270
  %3 = load ptr, ptr %2, align 8
  %4 = getelementptr inbounds nuw %"class.__gnu_cxx::__normal_iterator.368", ptr %3, i32 0, i32 0
  %5 = load ptr, ptr %4, align 8, !tbaa !274
  ret ptr %5
}

; Function Attrs: mustprogress nounwind uwtable
define linkonce_odr hidden ptr @_ZNK9__gnu_cxx17__normal_iteratorIPPKN4cvc58internal6theory5arith6linear10ConstraintESt6vectorIS8_SaIS8_EEEmiEl(ptr noundef nonnull align 8 dereferenceable(8) %0, i64 noundef %1) #4 comdat align 2 {
  %3 = alloca %"class.__gnu_cxx::__normal_iterator.368", align 8
  %4 = alloca ptr, align 8
  %5 = alloca i64, align 8
  %6 = alloca ptr, align 8
  store ptr %0, ptr %4, align 8, !tbaa !270
  store i64 %1, ptr %5, align 8, !tbaa !139
  %7 = load ptr, ptr %4, align 8
  call void @llvm.lifetime.start.p0(i64 8, ptr %6) #3
  %8 = getelementptr inbounds nuw %"class.__gnu_cxx::__normal_iterator.368", ptr %7, i32 0, i32 0
  %9 = load ptr, ptr %8, align 8, !tbaa !274
  %10 = load i64, ptr %5, align 8, !tbaa !139
  %11 = sub i64 0, %10
  %12 = getelementptr inbounds ptr, ptr %9, i64 %11
  store ptr %12, ptr %6, align 8, !tbaa !98
  call void @_ZN9__gnu_cxx17__normal_iteratorIPPKN4cvc58internal6theory5arith6linear10ConstraintESt6vectorIS8_SaIS8_EEEC2ERKS9_(ptr noundef nonnull align 8 dereferenceable(8) %3, ptr noundef nonnull align 8 dereferenceable(8) %6) #3
  call void @llvm.lifetime.end.p0(i64 8, ptr %6) #3
  %13 = getelementptr inbounds nuw %"class.__gnu_cxx::__normal_iterator.368", ptr %3, i32 0, i32 0
  %14 = load ptr, ptr %13, align 8
  ret ptr %14
}

; Function Attrs: mustprogress nounwind uwtable
define linkonce_odr hidden ptr @_ZNSt6vectorIPKN4cvc58internal6theory5arith6linear10ConstraintESaIS7_EE3endEv(ptr noundef nonnull align 8 dereferenceable(24) %0) #4 comdat align 2 {
  %2 = alloca %"class.__gnu_cxx::__normal_iterator.368", align 8
  %3 = alloca ptr, align 8
  store ptr %0, ptr %3, align 8, !tbaa !91
  %4 = load ptr, ptr %3, align 8
  %5 = getelementptr inbounds nuw %"struct.std::_Vector_base.18", ptr %4, i32 0, i32 0
  %6 = getelementptr inbounds nuw %"struct.std::_Vector_base<const cvc5::internal::theory::arith::linear::Constraint *, std::allocator<const cvc5::internal::theory::arith::linear::Constraint *>>::_Vector_impl_data", ptr %5, i32 0, i32 1
  call void @_ZN9__gnu_cxx17__normal_iteratorIPPKN4cvc58internal6theory5arith6linear10ConstraintESt6vectorIS8_SaIS8_EEEC2ERKS9_(ptr noundef nonnull align 8 dereferenceable(8) %2, ptr noundef nonnull align 8 dereferenceable(8) %6) #3
  %7 = getelementptr inbounds nuw %"class.__gnu_cxx::__normal_iterator.368", ptr %2, i32 0, i32 0
  %8 = load ptr, ptr %7, align 8
  ret ptr %8
}

; Function Attrs: inlinehint mustprogress nounwind uwtable
define linkonce_odr hidden noundef zeroext i1 @_ZN9__gnu_cxxeqIPKPKN4cvc58internal6theory5arith6linear10ConstraintESt6vectorIS8_SaIS8_EEEEbRKNS_17__normal_iteratorIT_T0_EESJ_(ptr noundef nonnull align 8 dereferenceable(8) %0, ptr noundef nonnull align 8 dereferenceable(8) %1) #5 comdat {
  %3 = alloca ptr, align 8
  %4 = alloca ptr, align 8
  store ptr %0, ptr %3, align 8, !tbaa !283
  store ptr %1, ptr %4, align 8, !tbaa !283
  %5 = load ptr, ptr %3, align 8, !tbaa !283
  %6 = call noundef nonnull align 8 dereferenceable(8) ptr @_ZNK9__gnu_cxx17__normal_iteratorIPKPKN4cvc58internal6theory5arith6linear10ConstraintESt6vectorIS8_SaIS8_EEE4baseEv(ptr noundef nonnull align 8 dereferenceable(8) %5) #3
  %7 = load ptr, ptr %6, align 8, !tbaa !98
  %8 = load ptr, ptr %4, align 8, !tbaa !283
  %9 = call noundef nonnull align 8 dereferenceable(8) ptr @_ZNK9__gnu_cxx17__normal_iteratorIPKPKN4cvc58internal6theory5arith6linear10ConstraintESt6vectorIS8_SaIS8_EEE4baseEv(ptr noundef nonnull align 8 dereferenceable(8) %8) #3
  %10 = load ptr, ptr %9, align 8, !tbaa !98
  %11 = icmp eq ptr %7, %10
  ret i1 %11
}

; Function Attrs: mustprogress nounwind uwtable
define linkonce_odr hidden ptr @_ZNKSt6vectorIPKN4cvc58internal6theory5arith6linear10ConstraintESaIS7_EE3endEv(ptr noundef nonnull align 8 dereferenceable(24) %0) #4 comdat align 2 {
  %2 = alloca %"class.__gnu_cxx::__normal_iterator.370", align 8
  %3 = alloca ptr, align 8
  store ptr %0, ptr %3, align 8, !tbaa !91
  %4 = load ptr, ptr %3, align 8
  %5 = getelementptr inbounds nuw %"struct.std::_Vector_base.18", ptr %4, i32 0, i32 0
  %6 = getelementptr inbounds nuw %"struct.std::_Vector_base<const cvc5::internal::theory::arith::linear::Constraint *, std::allocator<const cvc5::internal::theory::arith::linear::Constraint *>>::_Vector_impl_data", ptr %5, i32 0, i32 1
  call void @_ZN9__gnu_cxx17__normal_iteratorIPKPKN4cvc58internal6theory5arith6linear10ConstraintESt6vectorIS8_SaIS8_EEEC2ERKSA_(ptr noundef nonnull align 8 dereferenceable(8) %2, ptr noundef nonnull align 8 dereferenceable(8) %6) #3
  %7 = getelementptr inbounds nuw %"class.__gnu_cxx::__normal_iterator.370", ptr %2, i32 0, i32 0
  %8 = load ptr, ptr %7, align 8
  ret ptr %8
}

; Function Attrs: mustprogress nounwind uwtable
define linkonce_odr hidden ptr @_ZNKSt6vectorIPKN4cvc58internal6theory5arith6linear10ConstraintESaIS7_EE5beginEv(ptr noundef nonnull align 8 dereferenceable(24) %0) #4 comdat align 2 {
  %2 = alloca %"class.__gnu_cxx::__normal_iterator.370", align 8
  %3 = alloca ptr, align 8
  store ptr %0, ptr %3, align 8, !tbaa !91
  %4 = load ptr, ptr %3, align 8
  %5 = getelementptr inbounds nuw %"struct.std::_Vector_base.18", ptr %4, i32 0, i32 0
  %6 = getelementptr inbounds nuw %"struct.std::_Vector_base<const cvc5::internal::theory::arith::linear::Constraint *, std::allocator<const cvc5::internal::theory::arith::linear::Constraint *>>::_Vector_impl_data", ptr %5, i32 0, i32 0
  call void @_ZN9__gnu_cxx17__normal_iteratorIPKPKN4cvc58internal6theory5arith6linear10ConstraintESt6vectorIS8_SaIS8_EEEC2ERKSA_(ptr noundef nonnull align 8 dereferenceable(8) %2, ptr noundef nonnull align 8 dereferenceable(8) %6) #3
  %7 = getelementptr inbounds nuw %"class.__gnu_cxx::__normal_iterator.370", ptr %2, i32 0, i32 0
  %8 = load ptr, ptr %7, align 8
  ret ptr %8
}

; Function Attrs: mustprogress nounwind uwtable
define linkonce_odr hidden noundef nonnull align 8 dereferenceable(32) ptr @_ZNSt6vectorIN4cvc58internal8RationalESaIS2_EE4backEv(ptr noundef nonnull align 8 dereferenceable(24) %0) #4 comdat align 2 {
  %2 = alloca ptr, align 8
  %3 = alloca %"class.__gnu_cxx::__normal_iterator.369", align 8
  %4 = alloca %"class.__gnu_cxx::__normal_iterator.369", align 8
  store ptr %0, ptr %2, align 8, !tbaa !89
  %5 = load ptr, ptr %2, align 8
  call void @llvm.lifetime.start.p0(i64 8, ptr %3) #3
  call void @llvm.lifetime.start.p0(i64 8, ptr %4) #3
  %6 = call ptr @_ZNSt6vectorIN4cvc58internal8RationalESaIS2_EE3endEv(ptr noundef nonnull align 8 dereferenceable(24) %5) #3
  %7 = getelementptr inbounds nuw %"class.__gnu_cxx::__normal_iterator.369", ptr %4, i32 0, i32 0
  store ptr %6, ptr %7, align 8
  %8 = call ptr @_ZNK9__gnu_cxx17__normal_iteratorIPN4cvc58internal8RationalESt6vectorIS3_SaIS3_EEEmiEl(ptr noundef nonnull align 8 dereferenceable(8) %4, i64 noundef 1) #3
  %9 = getelementptr inbounds nuw %"class.__gnu_cxx::__normal_iterator.369", ptr %3, i32 0, i32 0
  store ptr %8, ptr %9, align 8
  %10 = call noundef nonnull align 8 dereferenceable(32) ptr @_ZNK9__gnu_cxx17__normal_iteratorIPN4cvc58internal8RationalESt6vectorIS3_SaIS3_EEEdeEv(ptr noundef nonnull align 8 dereferenceable(8) %3) #3
  call void @llvm.lifetime.end.p0(i64 8, ptr %4) #3
  call void @llvm.lifetime.end.p0(i64 8, ptr %3) #3
  ret ptr %10
}

; Function Attrs: mustprogress nounwind uwtable
define linkonce_odr hidden noundef nonnull align 8 dereferenceable(32) ptr @_ZNSt6vectorIN4cvc58internal8RationalESaIS2_EE5frontEv(ptr noundef nonnull align 8 dereferenceable(24) %0) #4 comdat align 2 {
  %2 = alloca ptr, align 8
  %3 = alloca %"class.__gnu_cxx::__normal_iterator.369", align 8
  store ptr %0, ptr %2, align 8, !tbaa !89
  %4 = load ptr, ptr %2, align 8
  call void @llvm.lifetime.start.p0(i64 8, ptr %3) #3
  %5 = call ptr @_ZNSt6vectorIN4cvc58internal8RationalESaIS2_EE5beginEv(ptr noundef nonnull align 8 dereferenceable(24) %4) #3
  %6 = getelementptr inbounds nuw %"class.__gnu_cxx::__normal_iterator.369", ptr %3, i32 0, i32 0
  store ptr %5, ptr %6, align 8
  %7 = call noundef nonnull align 8 dereferenceable(32) ptr @_ZNK9__gnu_cxx17__normal_iteratorIPN4cvc58internal8RationalESt6vectorIS3_SaIS3_EEEdeEv(ptr noundef nonnull align 8 dereferenceable(8) %3) #3
  call void @llvm.lifetime.end.p0(i64 8, ptr %3) #3
  ret ptr %7
}

; Function Attrs: mustprogress nounwind uwtable
define linkonce_odr hidden noundef nonnull align 8 dereferenceable(8) ptr @_ZNSt6vectorIPKN4cvc58internal6theory5arith6linear10ConstraintESaIS7_EE4backEv(ptr noundef nonnull align 8 dereferenceable(24) %0) #4 comdat align 2 {
  %2 = alloca ptr, align 8
  %3 = alloca %"class.__gnu_cxx::__normal_iterator.368", align 8
  %4 = alloca %"class.__gnu_cxx::__normal_iterator.368", align 8
  store ptr %0, ptr %2, align 8, !tbaa !91
  %5 = load ptr, ptr %2, align 8
  call void @llvm.lifetime.start.p0(i64 8, ptr %3) #3
  call void @llvm.lifetime.start.p0(i64 8, ptr %4) #3
  %6 = call ptr @_ZNSt6vectorIPKN4cvc58internal6theory5arith6linear10ConstraintESaIS7_EE3endEv(ptr noundef nonnull align 8 dereferenceable(24) %5) #3
  %7 = getelementptr inbounds nuw %"class.__gnu_cxx::__normal_iterator.368", ptr %4, i32 0, i32 0
  store ptr %6, ptr %7, align 8
  %8 = call ptr @_ZNK9__gnu_cxx17__normal_iteratorIPPKN4cvc58internal6theory5arith6linear10ConstraintESt6vectorIS8_SaIS8_EEEmiEl(ptr noundef nonnull align 8 dereferenceable(8) %4, i64 noundef 1) #3
  %9 = getelementptr inbounds nuw %"class.__gnu_cxx::__normal_iterator.368", ptr %3, i32 0, i32 0
  store ptr %8, ptr %9, align 8
  %10 = call noundef nonnull align 8 dereferenceable(8) ptr @_ZNK9__gnu_cxx17__normal_iteratorIPPKN4cvc58internal6theory5arith6linear10ConstraintESt6vectorIS8_SaIS8_EEEdeEv(ptr noundef nonnull align 8 dereferenceable(8) %3) #3
  call void @llvm.lifetime.end.p0(i64 8, ptr %4) #3
  call void @llvm.lifetime.end.p0(i64 8, ptr %3) #3
  ret ptr %10
}

; Function Attrs: mustprogress nounwind uwtable
define linkonce_odr hidden noundef zeroext i1 @_ZNKSt6vectorIPKN4cvc58internal6theory5arith6linear10ConstraintESaIS7_EE5emptyEv(ptr noundef nonnull align 8 dereferenceable(24) %0) #4 comdat align 2 {
  %2 = alloca ptr, align 8
  %3 = alloca %"class.__gnu_cxx::__normal_iterator.370", align 8
  %4 = alloca %"class.__gnu_cxx::__normal_iterator.370", align 8
  store ptr %0, ptr %2, align 8, !tbaa !91
  %5 = load ptr, ptr %2, align 8
  call void @llvm.lifetime.start.p0(i64 8, ptr %3) #3
  %6 = call ptr @_ZNKSt6vectorIPKN4cvc58internal6theory5arith6linear10ConstraintESaIS7_EE5beginEv(ptr noundef nonnull align 8 dereferenceable(24) %5) #3
  %7 = getelementptr inbounds nuw %"class.__gnu_cxx::__normal_iterator.370", ptr %3, i32 0, i32 0
  store ptr %6, ptr %7, align 8
  call void @llvm.lifetime.start.p0(i64 8, ptr %4) #3
  %8 = call ptr @_ZNKSt6vectorIPKN4cvc58internal6theory5arith6linear10ConstraintESaIS7_EE3endEv(ptr noundef nonnull align 8 dereferenceable(24) %5) #3
  %9 = getelementptr inbounds nuw %"class.__gnu_cxx::__normal_iterator.370", ptr %4, i32 0, i32 0
  store ptr %8, ptr %9, align 8
  %10 = call noundef zeroext i1 @_ZN9__gnu_cxxeqIPKPKN4cvc58internal6theory5arith6linear10ConstraintESt6vectorIS8_SaIS8_EEEEbRKNS_17__normal_iteratorIT_T0_EESJ_(ptr noundef nonnull align 8 dereferenceable(8) %3, ptr noundef nonnull align 8 dereferenceable(8) %4) #3
  call void @llvm.lifetime.end.p0(i64 8, ptr %4) #3
  call void @llvm.lifetime.end.p0(i64 8, ptr %3) #3
  ret i1 %10
}

; Function Attrs: mustprogress uwtable
define hidden void @_ZN4cvc58internal6theory5arith6linear21FarkasConflictBuilder18makeLastConsequentEv(ptr noundef nonnull align 8 dereferenceable(58) %0) #6 align 2 {
  %2 = alloca ptr, align 8
  %3 = alloca ptr, align 8
  store ptr %0, ptr %2, align 8, !tbaa !69
  %4 = load ptr, ptr %2, align 8
  %5 = getelementptr inbounds nuw %"class.cvc5::internal::theory::arith::linear::FarkasConflictBuilder", ptr %4, i32 0, i32 1
  %6 = call noundef zeroext i1 @_ZNKSt6vectorIPKN4cvc58internal6theory5arith6linear10ConstraintESaIS7_EE5emptyEv(ptr noundef nonnull align 8 dereferenceable(24) %5) #3
  br i1 %6, label %7, label %9

7:                                                ; preds = %1
  %8 = getelementptr inbounds nuw %"class.cvc5::internal::theory::arith::linear::FarkasConflictBuilder", ptr %4, i32 0, i32 3
  store i8 1, ptr %8, align 8, !tbaa !85
  br label %29

9:                                                ; preds = %1
  call void @llvm.lifetime.start.p0(i64 8, ptr %3) #3
  %10 = getelementptr inbounds nuw %"class.cvc5::internal::theory::arith::linear::FarkasConflictBuilder", ptr %4, i32 0, i32 1
  %11 = call noundef nonnull align 8 dereferenceable(8) ptr @_ZNSt6vectorIPKN4cvc58internal6theory5arith6linear10ConstraintESaIS7_EE4backEv(ptr noundef nonnull align 8 dereferenceable(24) %10) #3
  %12 = load ptr, ptr %11, align 8, !tbaa !63
  store ptr %12, ptr %3, align 8, !tbaa !63
  %13 = getelementptr inbounds nuw %"class.cvc5::internal::theory::arith::linear::FarkasConflictBuilder", ptr %4, i32 0, i32 2
  %14 = load ptr, ptr %13, align 8, !tbaa !73
  %15 = getelementptr inbounds nuw %"class.cvc5::internal::theory::arith::linear::FarkasConflictBuilder", ptr %4, i32 0, i32 1
  %16 = call noundef nonnull align 8 dereferenceable(8) ptr @_ZNSt6vectorIPKN4cvc58internal6theory5arith6linear10ConstraintESaIS7_EE4backEv(ptr noundef nonnull align 8 dereferenceable(24) %15) #3
  store ptr %14, ptr %16, align 8, !tbaa !63
  %17 = load ptr, ptr %3, align 8, !tbaa !63
  %18 = getelementptr inbounds nuw %"class.cvc5::internal::theory::arith::linear::FarkasConflictBuilder", ptr %4, i32 0, i32 2
  store ptr %17, ptr %18, align 8, !tbaa !73
  %19 = getelementptr inbounds nuw %"class.cvc5::internal::theory::arith::linear::FarkasConflictBuilder", ptr %4, i32 0, i32 4
  %20 = load i8, ptr %19, align 1, !tbaa !88, !range !86, !noundef !87
  %21 = trunc i8 %20 to i1
  br i1 %21, label %22, label %27

22:                                               ; preds = %9
  %23 = getelementptr inbounds nuw %"class.cvc5::internal::theory::arith::linear::FarkasConflictBuilder", ptr %4, i32 0, i32 0
  %24 = call noundef nonnull align 8 dereferenceable(32) ptr @_ZNSt6vectorIN4cvc58internal8RationalESaIS2_EE5frontEv(ptr noundef nonnull align 8 dereferenceable(24) %23) #3
  %25 = getelementptr inbounds nuw %"class.cvc5::internal::theory::arith::linear::FarkasConflictBuilder", ptr %4, i32 0, i32 0
  %26 = call noundef nonnull align 8 dereferenceable(32) ptr @_ZNSt6vectorIN4cvc58internal8RationalESaIS2_EE4backEv(ptr noundef nonnull align 8 dereferenceable(24) %25) #3
  call void @_ZSt4swapIN4cvc58internal8RationalEENSt9enable_ifIXsr6__and_ISt6__not_ISt15__is_tuple_likeIT_EESt21is_move_constructibleIS6_ESt18is_move_assignableIS6_EEE5valueEvE4typeERS6_SF_(ptr noundef nonnull align 8 dereferenceable(32) %24, ptr noundef nonnull align 8 dereferenceable(32) %26)
  br label %27

27:                                               ; preds = %22, %9
  %28 = getelementptr inbounds nuw %"class.cvc5::internal::theory::arith::linear::FarkasConflictBuilder", ptr %4, i32 0, i32 3
  store i8 1, ptr %28, align 8, !tbaa !85
  call void @llvm.lifetime.end.p0(i64 8, ptr %3) #3
  br label %29

29:                                               ; preds = %27, %7
  ret void
}