; Function Attrs: mustprogress uwtable
define hidden void @_ZN4cvc58internal6theory5arith6linear21FarkasConflictBuilder18makeLastConsequentEv(ptr noundef nonnull align 8 captures(none) dereferenceable(58) initializes((56, 57)) %0) local_unnamed_addr #4 align 2 {
  %2 = getelementptr inbounds nuw i8, ptr %0, i64 24
  %3 = load ptr, ptr %2, align 8, !tbaa !94
  %4 = getelementptr inbounds nuw i8, ptr %0, i64 32
  %5 = load ptr, ptr %4, align 8, !tbaa !94
  %6 = icmp eq ptr %3, %5
  br i1 %6, label %20, label %7

7:                                                ; preds = %1
  %8 = getelementptr inbounds i8, ptr %5, i64 -8
  %9 = load ptr, ptr %8, align 8, !tbaa !92
  %10 = getelementptr inbounds nuw i8, ptr %0, i64 48
  %11 = load ptr, ptr %10, align 8, !tbaa !82
  store ptr %11, ptr %8, align 8, !tbaa !92
  store ptr %9, ptr %10, align 8, !tbaa !82
  %12 = getelementptr inbounds nuw i8, ptr %0, i64 57
  %13 = load i8, ptr %12, align 1, !tbaa !68, !range !86, !noundef !87
  %14 = trunc nuw i8 %13 to i1
  br i1 %14, label %15, label %20

15:                                               ; preds = %7
  %16 = load ptr, ptr %0, align 8, !tbaa !95
  %17 = getelementptr inbounds nuw i8, ptr %0, i64 8
  %18 = load ptr, ptr %17, align 8, !tbaa !95
  %19 = getelementptr inbounds i8, ptr %18, i64 -32
  tail call void @_ZSt4swapIN4cvc58internal8RationalEENSt9enable_ifIXsr6__and_ISt6__not_ISt15__is_tuple_likeIT_EESt21is_move_constructibleIS6_ESt18is_move_assignableIS6_EEE5valueEvE4typeERS6_SF_(ptr noundef nonnull align 8 dereferenceable(32) %16, ptr noundef nonnull align 8 dereferenceable(32) %19)
  br label %20

20:                                               ; preds = %7, %15, %1
  %21 = getelementptr inbounds nuw i8, ptr %0, i64 56
  store i8 1, ptr %21, align 8, !tbaa !83
  ret void
}